; Function Attrs: nounwind uwtable
define ptr @l_Std_Range_forIn_x27_loop___at___private_Lean_Meta_Tactic_Grind_Internalize_0__Lean_Meta_Grind_internalizeImpl_go___spec__1___boxed(ptr noundef readonly captures(none) %0) local_unnamed_addr #1 {
  %2 = load ptr, ptr %0, align 8, !tbaa !9
  %3 = getelementptr inbounds nuw i8, ptr %0, i64 8
  %4 = load ptr, ptr %3, align 8, !tbaa !9
  %5 = getelementptr inbounds nuw i8, ptr %0, i64 16
  %6 = load ptr, ptr %5, align 8, !tbaa !9
  %7 = getelementptr inbounds nuw i8, ptr %0, i64 24
  %8 = load ptr, ptr %7, align 8, !tbaa !9
  %9 = getelementptr inbounds nuw i8, ptr %0, i64 32
  %10 = load ptr, ptr %9, align 8, !tbaa !9
  %11 = getelementptr inbounds nuw i8, ptr %0, i64 40
  %12 = load ptr, ptr %11, align 8, !tbaa !9
  %13 = getelementptr inbounds nuw i8, ptr %0, i64 64
  %14 = load ptr, ptr %13, align 8, !tbaa !9
  %15 = getelementptr inbounds nuw i8, ptr %0, i64 72
  %16 = load ptr, ptr %15, align 8, !tbaa !9
  %17 = getelementptr inbounds nuw i8, ptr %0, i64 80
  %18 = load ptr, ptr %17, align 8, !tbaa !9
  %19 = getelementptr inbounds nuw i8, ptr %0, i64 88
  %20 = load ptr, ptr %19, align 8, !tbaa !9
  %21 = getelementptr inbounds nuw i8, ptr %0, i64 96
  %22 = load ptr, ptr %21, align 8, !tbaa !9
  %23 = getelementptr inbounds nuw i8, ptr %0, i64 104
  %24 = load ptr, ptr %23, align 8, !tbaa !9
  %25 = getelementptr inbounds nuw i8, ptr %0, i64 112
  %26 = load ptr, ptr %25, align 8, !tbaa !9
  %27 = getelementptr inbounds nuw i8, ptr %0, i64 120
  %28 = load ptr, ptr %27, align 8, !tbaa !9
  %29 = getelementptr inbounds nuw i8, ptr %0, i64 128
  %30 = load ptr, ptr %29, align 8, !tbaa !9
  %31 = tail call ptr @l_Std_Range_forIn_x27_loop___at___private_Lean_Meta_Tactic_Grind_Internalize_0__Lean_Meta_Grind_internalizeImpl_go___spec__1(ptr noundef %2, ptr noundef %4, ptr noundef %6, ptr noundef %8, ptr noundef %10, ptr noundef %12, ptr poison, ptr poison, ptr noundef %14, ptr noundef %16, ptr noundef %18, ptr noundef %20, ptr noundef %22, ptr noundef %24, ptr noundef %26, ptr noundef %28, ptr noundef %30)
  %32 = ptrtoint ptr %8 to i64
  %33 = and i64 %32, 1
  %.not = icmp eq i64 %33, 0
  br i1 %.not, label %34, label %lean_dec.exit37

34:                                               ; preds = %1
  %35 = load i32, ptr %8, align 4, !tbaa !4
  %36 = icmp sgt i32 %35, 1
  br i1 %36, label %37, label %39, !prof !11

37:                                               ; preds = %34
  %38 = add nsw i32 %35, -1
  store i32 %38, ptr %8, align 4, !tbaa !4
  br label %lean_dec.exit37

39:                                               ; preds = %34
  %.not.i = icmp eq i32 %35, 0
  br i1 %.not.i, label %lean_dec.exit37, label %40

40:                                               ; preds = %39
  tail call void @lean_dec_ref_cold(ptr noundef nonnull %8) #4
  br label %lean_dec.exit37

lean_dec.exit37:                                  ; preds = %40, %39, %37, %1
  %41 = ptrtoint ptr %6 to i64
  %42 = and i64 %41, 1
  %.not40 = icmp eq i64 %42, 0
  br i1 %.not40, label %43, label %lean_dec.exit

43:                                               ; preds = %lean_dec.exit37
  %44 = load i32, ptr %6, align 4, !tbaa !4
  %45 = icmp sgt i32 %44, 1
  br i1 %45, label %46, label %48, !prof !11

46:                                               ; preds = %43
  %47 = add nsw i32 %44, -1
  store i32 %47, ptr %6, align 4, !tbaa !4
  br label %lean_dec.exit

48:                                               ; preds = %43
  %.not.i38 = icmp eq i32 %44, 0
  br i1 %.not.i38, label %lean_dec.exit, label %49

49:                                               ; preds = %48
  tail call void @lean_dec_ref_cold(ptr noundef nonnull %6) #4
  br label %lean_dec.exit

lean_dec.exit:                                    ; preds = %49, %48, %46, %lean_dec.exit37
  ret ptr %31
}